; Function Attrs: mustprogress nounwind uwtable
define hidden void @_ZN23ClassLoaderStatsClosure5printEv(ptr noundef nonnull align 8 dereferenceable(56) %0) local_unnamed_addr #0 align 2 {
  %2 = getelementptr inbounds i8, ptr %0, i64 8
  %3 = load ptr, ptr %2, align 8
  tail call void (ptr, ptr, ...) @_ZN12outputStream8print_crEPKcz(ptr noundef nonnull align 8 dereferenceable(56) %3, ptr noundef nonnull @.str.8, ptr noundef nonnull @.str.7, ptr noundef nonnull @.str.7, ptr noundef nonnull @.str.7) #7
  %4 = getelementptr inbounds i8, ptr %0, i64 16
  %5 = load ptr, ptr %4, align 8
  %6 = getelementptr inbounds i8, ptr %5, i64 2048
  %7 = load i32, ptr %6, align 8
  %8 = icmp sgt i32 %7, 0
  br i1 %8, label %.preheader.i.i, label %_ZNK21ResourceHashtableBaseI29FixedResourceHashtableStorageILj256EP7oopDesc16ClassLoaderStatsES2_S3_LN6AnyObj15allocation_typeE2EL8MEMFLAGS18EXadL_ZN23ClassLoaderStatsClosure8oop_hashERKS2_EEXadL_Z16primitive_equalsIS2_EbRKT_SE_EEE7iterateIS8_EEvPSC_.exit

.preheader.i.i:                                   ; preds = %1, %._crit_edge.i.i
  %.0.idx20.i.i = phi i64 [ %.0.add.i.i, %._crit_edge.i.i ], [ 0, %1 ]
  %.01219.i.i = phi i32 [ %.1.lcssa.i.i, %._crit_edge.i.i ], [ %7, %1 ]
  %.0.ptr21.i.i = getelementptr inbounds i8, ptr %5, i64 %.0.idx20.i.i
  %.01115.i.i = load ptr, ptr %.0.ptr21.i.i, align 8
  %.not16.i.i = icmp eq ptr %.01115.i.i, null
  br i1 %.not16.i.i, label %._crit_edge.i.i, label %.lr.ph.i.i

.lr.ph.i.i:                                       ; preds = %.preheader.i.i, %15
  %.01118.i.i = phi ptr [ %.011.i.i, %15 ], [ %.01115.i.i, %.preheader.i.i ]
  %.117.i.i = phi i32 [ %17, %15 ], [ %.01219.i.i, %.preheader.i.i ]
  %9 = getelementptr inbounds i8, ptr %.01118.i.i, i64 8
  %10 = getelementptr inbounds i8, ptr %.01118.i.i, i64 16
  %11 = load ptr, ptr %0, align 8
  %12 = getelementptr inbounds i8, ptr %11, i64 8
  %13 = load ptr, ptr %12, align 8
  %14 = tail call noundef zeroext i1 %13(ptr noundef nonnull align 8 dereferenceable(56) %0, ptr noundef nonnull align 8 dereferenceable(8) %9, ptr noundef nonnull align 8 dereferenceable(72) %10) #7
  br i1 %14, label %15, label %_ZNK21ResourceHashtableBaseI29FixedResourceHashtableStorageILj256EP7oopDesc16ClassLoaderStatsES2_S3_LN6AnyObj15allocation_typeE2EL8MEMFLAGS18EXadL_ZN23ClassLoaderStatsClosure8oop_hashERKS2_EEXadL_Z16primitive_equalsIS2_EbRKT_SE_EEE7iterateIS8_EEvPSC_.exit

15:                                               ; preds = %.lr.ph.i.i
  %16 = getelementptr inbounds i8, ptr %.01118.i.i, i64 88
  %17 = add nsw i32 %.117.i.i, -1
  %.011.i.i = load ptr, ptr %16, align 8
  %.not.i.i = icmp eq ptr %.011.i.i, null
  br i1 %.not.i.i, label %._crit_edge.i.i, label %.lr.ph.i.i, !llvm.loop !9

._crit_edge.i.i:                                  ; preds = %15, %.preheader.i.i
  %.1.lcssa.i.i = phi i32 [ %.01219.i.i, %.preheader.i.i ], [ %17, %15 ]
  %.0.add.i.i = add nuw nsw i64 %.0.idx20.i.i, 8
  %18 = icmp sgt i32 %.1.lcssa.i.i, 0
  %19 = icmp ult i64 %.0.idx20.i.i, 2040
  %or.cond.i.i = and i1 %19, %18
  br i1 %or.cond.i.i, label %.preheader.i.i, label %_ZNK21ResourceHashtableBaseI29FixedResourceHashtableStorageILj256EP7oopDesc16ClassLoaderStatsES2_S3_LN6AnyObj15allocation_typeE2EL8MEMFLAGS18EXadL_ZN23ClassLoaderStatsClosure8oop_hashERKS2_EEXadL_Z16primitive_equalsIS2_EbRKT_SE_EEE7iterateIS8_EEvPSC_.exit, !llvm.loop !10

_ZNK21ResourceHashtableBaseI29FixedResourceHashtableStorageILj256EP7oopDesc16ClassLoaderStatsES2_S3_LN6AnyObj15allocation_typeE2EL8MEMFLAGS18EXadL_ZN23ClassLoaderStatsClosure8oop_hashERKS2_EEXadL_Z16primitive_equalsIS2_EbRKT_SE_EEE7iterateIS8_EEvPSC_.exit: ; preds = %._crit_edge.i.i, %.lr.ph.i.i, %1
  %20 = load ptr, ptr %2, align 8
  %21 = getelementptr inbounds i8, ptr %0, i64 24
  %22 = load i64, ptr %21, align 8
  tail call void (ptr, ptr, ...) @_ZN12outputStream5printEPKcz(ptr noundef nonnull align 8 dereferenceable(56) %20, ptr noundef nonnull @.str.9, i64 noundef %22) #7
  %23 = load ptr, ptr %2, align 8
  tail call void (ptr, ptr, ...) @_ZN12outputStream5printEPKcz(ptr noundef nonnull align 8 dereferenceable(56) %23, ptr noundef nonnull @.str.10, ptr noundef nonnull @.str.7, ptr noundef nonnull @.str.7, ptr noundef nonnull @.str.7) #7
  %24 = load ptr, ptr %2, align 8
  %25 = getelementptr inbounds i8, ptr %0, i64 32
  %26 = load i64, ptr %25, align 8
  %27 = getelementptr inbounds i8, ptr %0, i64 40
  %28 = load i64, ptr %27, align 8
  %29 = getelementptr inbounds i8, ptr %0, i64 48
  %30 = load i64, ptr %29, align 8
  tail call void (ptr, ptr, ...) @_ZN12outputStream8print_crEPKcz(ptr noundef nonnull align 8 dereferenceable(56) %24, ptr noundef nonnull @.str.11, i64 noundef %26, i64 noundef %28, i64 noundef %30) #7
  %31 = load ptr, ptr %2, align 8
  tail call void (ptr, ptr, ...) @_ZN12outputStream8print_crEPKcz(ptr noundef nonnull align 8 dereferenceable(56) %31, ptr noundef nonnull @.str.12) #7
  %32 = load ptr, ptr %2, align 8
  tail call void (ptr, ptr, ...) @_ZN12outputStream8print_crEPKcz(ptr noundef nonnull align 8 dereferenceable(56) %32, ptr noundef nonnull @.str.13) #7
  ret void
}